target datalayout = "e-m:e-p270:32:32-p271:32:32-p272:64:64-i64:64-i128:128-f80:128-n8:16:32:64-S128"
target triple = "x86_64-pc-linux-gnu"

%class.OopHandle = type { ptr }
%class.JavaThread = type { %class.Thread, i8, %class.OopHandle, %class.OopHandle, %class.OopHandle, %class.OopHandle, %class.JavaFrameAnchor, ptr, %struct.JNIEnv_, ptr, ptr, ptr, ptr, ptr, ptr, ptr, ptr, %class.MemRegion, ptr, i8, ptr, ptr, ptr, i32, i32, %"struct.SafepointMechanism::ThreadData", ptr, ptr, i32, i32, i8, i8, i8, i8, i8, i8, i8, i32, i8, i32, i8, i8, i64, %union.anon, ptr, ptr, i64, i64, ptr, ptr, %class.StackOverflow, ptr, ptr, ptr, i32, i32, ptr, i32, i32, i32, ptr, ptr, i32, i64, i64, %class.StackWatermarks, %class.HandshakeState, ptr, i32, ptr, i32, i32, ptr, %class.Parker, ptr, ptr, %class.LockStack }
%class.Thread = type { %class.ThreadShadow.base, i64, [43 x i64], ptr, ptr, i32, ptr, i64, i64, %class.ThreadLocalAllocBuffer, i64, %class.ThreadHeapSampler, %class.ThreadStatisticalInfo, %class.JfrThreadLocal, ptr, ptr, ptr, ptr, ptr, ptr, i64, i32, i32, ptr, i32, i32, i32, i32, i8, ptr }
%class.ThreadShadow.base = type <{ ptr, ptr, ptr, i32 }>
%class.ThreadLocalAllocBuffer = type <{ ptr, ptr, ptr, ptr, ptr, i64, i64, i64, i64, i32, i32, i32, i32, i64, %class.AdaptiveWeightedAverage, [4 x i8] }>
%class.AdaptiveWeightedAverage = type { float, i32, i32, i8, float }
%class.ThreadHeapSampler = type { i64 }
%class.ThreadStatisticalInfo = type { i64, i64 }
%class.JfrThreadLocal = type <{ ptr, ptr, ptr, ptr, ptr, ptr, ptr, ptr, ptr, ptr, %class.RefCountHandle, i64, i64, i64, i64, i64, i64, i64, i64, i64, i64, i64, i32, i32, i32, i16, i8, i8, i8, i8, i8, [5 x i8] }>
%class.RefCountHandle = type { ptr }
%class.JavaFrameAnchor = type { ptr, ptr, ptr }
%struct.JNIEnv_ = type { ptr }
%class.MemRegion = type { ptr, i64 }
%"struct.SafepointMechanism::ThreadData" = type { i64, i64 }
%union.anon = type { ptr }
%class.StackOverflow = type { i32, ptr, ptr, ptr, ptr, ptr, ptr }
%class.StackWatermarks = type { ptr }
%class.HandshakeState = type <{ ptr, %class.FilterQueue, %class.Monitor, ptr, i8, i8, i8, [5 x i8] }>
%class.FilterQueue = type { ptr }
%class.Monitor = type { %class.Mutex }
%class.Mutex = type { ptr, %class.PlatformMonitor, ptr }
%class.PlatformMonitor = type { %class.PlatformMutex, %union.pthread_cond_t }
%class.PlatformMutex = type { %union.pthread_mutex_t }
%union.pthread_mutex_t = type { %struct.__pthread_mutex_s }
%struct.__pthread_mutex_s = type { i32, i32, i32, i32, i32, i16, i16, %struct.__pthread_internal_list }
%struct.__pthread_internal_list = type { ptr, ptr }
%union.pthread_cond_t = type { %struct.__pthread_cond_s }
%struct.__pthread_cond_s = type { %union.__atomic_wide_counter, %union.__atomic_wide_counter, [2 x i32], [2 x i32], i32, i32, [2 x i32] }
%union.__atomic_wide_counter = type { i64 }
%class.Parker = type { %class.PlatformParker }
%class.PlatformParker = type { i32, i32, [1 x %union.pthread_mutex_t], [2 x %union.pthread_cond_t] }
%class.LockStack = type { i32, i64, [8 x ptr] }
%class.JVMCIObject = type <{ ptr, i8, [7 x i8] }>
%class.JVMCIRuntime = type <{ i32, [4 x i8], %class.JVMCIObject, ptr, ptr, i32, i32, ptr, ptr, %class.GrowableArray, i32, i8, [3 x i8] }>
%class.GrowableArray = type { %class.GrowableArrayWithAllocator, %class.GrowableArrayMetadata }
%class.GrowableArrayWithAllocator = type { %class.GrowableArrayView }
%class.GrowableArrayView = type { %class.GrowableArrayBase, ptr }
%class.GrowableArrayBase = type { i32, i32 }
%class.GrowableArrayMetadata = type { i64 }
%class.MutexLocker = type { %class.MutexLockerImpl }
%class.MutexLockerImpl = type { ptr }

@.str = private unnamed_addr constant [41 x i8] c"src/hotspot/share/jvmci/jvmciRuntime.cpp\00", align 1
@g_assert_poison = external global ptr, align 8
@JVMCITraceLevel = external global i64, align 8
@JVMCIEventLogLevel = external global i64, align 8
@_ZN5JVMCI18_compiler_runtimesE = external global ptr, align 8
@.str.45 = private unnamed_addr constant [48 x i8] c"using pre-existing JVMCI runtime %d in shutdown\00", align 1
@_ZN5JVMCI26_shutdown_compiler_runtimeE = external global ptr, align 8
@.str.46 = private unnamed_addr constant [41 x i8] c"using reserved shutdown JVMCI runtime %d\00", align 1
@JVMCI_lock = external global ptr, align 8
@.str.51 = private unnamed_addr constant [89 x i8] c"guarantee(this == JVMCI::_shutdown_compiler_runtime || _num_attached_threads > 0) failed\00", align 1
@.str.52 = private unnamed_addr constant [66 x i8] c"missing reservation in JVMCI runtime %d: _num_attached_threads=%d\00", align 1
@.str.53 = private unnamed_addr constant [31 x i8] c"attached to JVMCI runtime %d%s\00", align 1
@.str.54 = private unnamed_addr constant [21 x i8] c" [in JVMCI shutdown]\00", align 1
@.str.55 = private unnamed_addr constant [1 x i8] zeroinitializer, align 1
@_ZN12JVMCIRuntimeC1EPS_ib = hidden unnamed_addr alias void (ptr, ptr, i32, i1), ptr @_ZN12JVMCIRuntimeC2EPS_ib

; Function Attrs: mustprogress nounwind uwtable
define linkonce_odr hidden void @_ZN10JavaThread20set_libjvmci_runtimeEP12JVMCIRuntime(ptr noundef nonnull align 8 dereferenceable(1800) %0, ptr noundef %1) #1 comdat align 2 {
  %3 = alloca ptr, align 8
  %4 = alloca ptr, align 8
  store ptr %0, ptr %3, align 8
  store ptr %1, ptr %4, align 8
  %5 = load ptr, ptr %3, align 8
  %6 = load ptr, ptr %4, align 8
  %7 = getelementptr inbounds %class.JavaThread, ptr %5, i32 0, i32 44
  store ptr %6, ptr %7, align 8
  ret void
}

; Function Attrs: mustprogress nounwind uwtable
define linkonce_odr hidden void @_ZN15MutexLockerImplD2Ev(ptr noundef nonnull align 8 dereferenceable(8) %0) unnamed_addr #1 comdat align 2 {
  %2 = alloca ptr, align 8
  store ptr %0, ptr %2, align 8
  %3 = load ptr, ptr %2, align 8
  %4 = getelementptr inbounds %class.MutexLockerImpl, ptr %3, i32 0, i32 0
  %5 = load ptr, ptr %4, align 8
  %6 = icmp ne ptr %5, null
  br i1 %6, label %7, label %10

7:                                                ; preds = %1
  %8 = getelementptr inbounds %class.MutexLockerImpl, ptr %3, i32 0, i32 0
  %9 = load ptr, ptr %8, align 8
  call void @_ZN5Mutex6unlockEv(ptr noundef nonnull align 8 dereferenceable(104) %9)
  br label %10

10:                                               ; preds = %7, %1
  ret void
}

; Function Attrs: mustprogress nounwind uwtable
define linkonce_odr hidden noundef i32 @_ZNK12JVMCIRuntime2idEv(ptr noundef nonnull align 8 dereferenceable(93) %0) #1 comdat align 2 {
  %2 = alloca ptr, align 8
  store ptr %0, ptr %2, align 8
  %3 = load ptr, ptr %2, align 8
  %4 = getelementptr inbounds %class.JVMCIRuntime, ptr %3, i32 0, i32 6
  %5 = load i32, ptr %4, align 4
  ret i32 %5
}

; Function Attrs: mustprogress nounwind uwtable
define hidden void @_ZN12JVMCIRuntime17pre_attach_threadEP10JavaThread(ptr noundef nonnull align 8 dereferenceable(93) %0, ptr noundef %1) #1 align 2 {
  %3 = alloca ptr, align 8
  %4 = alloca ptr, align 8
  store ptr %0, ptr %3, align 8
  store ptr %1, ptr %4, align 8
  %5 = load ptr, ptr %3, align 8
  %6 = getelementptr inbounds %class.JVMCIRuntime, ptr %5, i32 0, i32 10
  %7 = load i32, ptr %6, align 8
  %8 = add nsw i32 %7, 1
  store i32 %8, ptr %6, align 8
  ret void
}

; Function Attrs: mustprogress nounwind uwtable
define linkonce_odr hidden void @_ZN15MutexLockerImplC2EP5MutexNS0_18SafepointCheckFlagE(ptr noundef nonnull align 8 dereferenceable(8) %0, ptr noundef %1, i32 noundef %2) unnamed_addr #1 comdat align 2 {
  %4 = alloca ptr, align 8
  %5 = alloca ptr, align 8
  %6 = alloca i32, align 4
  %7 = alloca i8, align 1
  store ptr %0, ptr %4, align 8
  store ptr %1, ptr %5, align 8
  store i32 %2, ptr %6, align 4
  %8 = load ptr, ptr %4, align 8
  %9 = getelementptr inbounds %class.MutexLockerImpl, ptr %8, i32 0, i32 0
  %10 = load ptr, ptr %5, align 8
  store ptr %10, ptr %9, align 8
  %11 = load i32, ptr %6, align 4
  %12 = icmp eq i32 %11, 1
  %13 = zext i1 %12 to i8
  store i8 %13, ptr %7, align 1
  %14 = getelementptr inbounds %class.MutexLockerImpl, ptr %8, i32 0, i32 0
  %15 = load ptr, ptr %14, align 8
  %16 = icmp ne ptr %15, null
  br i1 %16, label %17, label %27

17:                                               ; preds = %3
  %18 = load i8, ptr %7, align 1
  %19 = trunc i8 %18 to i1
  br i1 %19, label %20, label %23

20:                                               ; preds = %17
  %21 = getelementptr inbounds %class.MutexLockerImpl, ptr %8, i32 0, i32 0
  %22 = load ptr, ptr %21, align 8
  call void @_ZN5Mutex28lock_without_safepoint_checkEv(ptr noundef nonnull align 8 dereferenceable(104) %22)
  br label %26

23:                                               ; preds = %17
  %24 = getelementptr inbounds %class.MutexLockerImpl, ptr %8, i32 0, i32 0
  %25 = load ptr, ptr %24, align 8
  call void @_ZN5Mutex4lockEv(ptr noundef nonnull align 8 dereferenceable(104) %25)
  br label %26

26:                                               ; preds = %23, %20
  br label %27

27:                                               ; preds = %26, %3
  ret void
}

; Function Attrs: mustprogress nounwind uwtable
define hidden void @_ZN12JVMCIRuntime13attach_threadEP10JavaThread(ptr noundef nonnull align 8 dereferenceable(93) %0, ptr noundef %1) #1 align 2 {
  %3 = alloca ptr, align 8
  %4 = alloca ptr, align 8
  store ptr %0, ptr %3, align 8
  store ptr %1, ptr %4, align 8
  %5 = load ptr, ptr %3, align 8
  %6 = load ptr, ptr %4, align 8
  call void @_ZN10JavaThread20set_libjvmci_runtimeEP12JVMCIRuntime(ptr noundef nonnull align 8 dereferenceable(1800) %6, ptr noundef %5)
  br label %7

7:                                                ; preds = %2
  %8 = load ptr, ptr @_ZN5JVMCI26_shutdown_compiler_runtimeE, align 8
  %9 = icmp eq ptr %5, %8
  br i1 %9, label %20, label %10

10:                                               ; preds = %7
  %11 = getelementptr inbounds %class.JVMCIRuntime, ptr %5, i32 0, i32 10
  %12 = load i32, ptr %11, align 8
  %13 = icmp sgt i32 %12, 0
  br i1 %13, label %20, label %14

14:                                               ; preds = %10
  %15 = load ptr, ptr @g_assert_poison, align 8
  store i8 88, ptr %15, align 1
  %16 = getelementptr inbounds %class.JVMCIRuntime, ptr %5, i32 0, i32 6
  %17 = load i32, ptr %16, align 4
  %18 = getelementptr inbounds %class.JVMCIRuntime, ptr %5, i32 0, i32 10
  %19 = load i32, ptr %18, align 8
  call void (ptr, i32, ptr, ptr, ...) @_Z15report_vm_errorPKciS0_S0_z(ptr noundef @.str, i32 noundef 1146, ptr noundef @.str.51, ptr noundef @.str.52, i32 noundef %17, i32 noundef %19) #13
  unreachable

20:                                               ; preds = %10, %7
  br label %21

21:                                               ; preds = %20
  %22 = load i64, ptr @JVMCITraceLevel, align 8
  %23 = icmp slt i64 %22, 1
  br i1 %23, label %24, label %28

24:                                               ; preds = %21
  %25 = load i64, ptr @JVMCIEventLogLevel, align 8
  %26 = icmp slt i64 %25, 1
  br i1 %26, label %27, label %28

27:                                               ; preds = %24
  br label %33

28:                                               ; preds = %24, %21
  %29 = getelementptr inbounds %class.JVMCIRuntime, ptr %5, i32 0, i32 6
  %30 = load i32, ptr %29, align 4
  %31 = call noundef zeroext i1 @_ZN5JVMCI11in_shutdownEv()
  %32 = select i1 %31, ptr @.str.54, ptr @.str.55
  call void (ptr, ...) @_ZN5JVMCI6event1EPKcz(ptr noundef @.str.53, i32 noundef %30, ptr noundef %32)
  br label %33

33:                                               ; preds = %28, %27
  ret void
}

; Function Attrs: mustprogress nounwind uwtable
define linkonce_odr hidden void @_ZN11MutexLockerD2Ev(ptr noundef nonnull align 8 dereferenceable(8) %0) unnamed_addr #1 comdat align 2 {
  %2 = alloca ptr, align 8
  store ptr %0, ptr %2, align 8
  %3 = load ptr, ptr %2, align 8
  call void @_ZN15MutexLockerImplD2Ev(ptr noundef nonnull align 8 dereferenceable(8) %3) #11
  ret void
}

; Function Attrs: mustprogress nounwind uwtable
define hidden noundef ptr @_ZN12JVMCIRuntime26select_runtime_in_shutdownEP10JavaThread(ptr noundef %0) #1 align 2 {
  %2 = alloca i64, align 8
  %3 = alloca i8, align 1
  %4 = alloca i64, align 8
  %5 = alloca ptr, align 8
  %6 = alloca ptr, align 8
  %7 = alloca ptr, align 8
  %8 = alloca ptr, align 8
  store ptr %0, ptr %6, align 8
  %9 = load ptr, ptr @_ZN5JVMCI18_compiler_runtimesE, align 8
  store ptr %9, ptr %7, align 8
  br label %10

10:                                               ; preds = %33, %1
  %11 = load ptr, ptr %7, align 8
  %12 = icmp ne ptr %11, null
  br i1 %12, label %13, label %37

13:                                               ; preds = %10
  %14 = load ptr, ptr %7, align 8
  %15 = getelementptr inbounds %class.JVMCIRuntime, ptr %14, i32 0, i32 10
  %16 = load i32, ptr %15, align 8
  %17 = icmp ne i32 %16, -1
  br i1 %17, label %18, label %32

18:                                               ; preds = %13
  %19 = load ptr, ptr %7, align 8
  %20 = load ptr, ptr %6, align 8
  call void @_ZN12JVMCIRuntime17pre_attach_threadEP10JavaThread(ptr noundef nonnull align 8 dereferenceable(93) %19, ptr noundef %20)
  %21 = load i64, ptr @JVMCITraceLevel, align 8
  %22 = icmp slt i64 %21, 1
  br i1 %22, label %23, label %27

23:                                               ; preds = %18
  %24 = load i64, ptr @JVMCIEventLogLevel, align 8
  %25 = icmp slt i64 %24, 1
  br i1 %25, label %26, label %27

26:                                               ; preds = %23
  br label %30

27:                                               ; preds = %23, %18
  %28 = load ptr, ptr %7, align 8
  %29 = call noundef i32 @_ZNK12JVMCIRuntime2idEv(ptr noundef nonnull align 8 dereferenceable(93) %28)
  call void (ptr, ...) @_ZN5JVMCI6event1EPKcz(ptr noundef @.str.45, i32 noundef %29)
  br label %30

30:                                               ; preds = %27, %26
  %31 = load ptr, ptr %7, align 8
  store ptr %31, ptr %5, align 8
  br label %58

32:                                               ; preds = %13
  br label %33

33:                                               ; preds = %32
  %34 = load ptr, ptr %7, align 8
  %35 = getelementptr inbounds %class.JVMCIRuntime, ptr %34, i32 0, i32 7
  %36 = load ptr, ptr %35, align 8
  store ptr %36, ptr %7, align 8
  br label %10, !llvm.loop !11

37:                                               ; preds = %10
  %38 = load ptr, ptr @_ZN5JVMCI26_shutdown_compiler_runtimeE, align 8
  %39 = icmp eq ptr %38, null
  br i1 %39, label %40, label %45

40:                                               ; preds = %37
  store i64 96, ptr %4, align 8
  %41 = load i64, ptr %4, align 8
  store i64 %41, ptr %2, align 8
  store i8 8, ptr %3, align 1
  %42 = load i64, ptr %2, align 8
  %43 = load i8, ptr %3, align 1
  %44 = call noundef ptr @_Z12AllocateHeapm8MEMFLAGSN17AllocFailStrategy13AllocFailEnumE(i64 noundef %42, i8 noundef zeroext %43, i32 noundef 0) #11
  call void @_ZN12JVMCIRuntimeC1EPS_ib(ptr noundef nonnull align 8 dereferenceable(93) %44, ptr noundef null, i32 noundef -2, i1 noundef zeroext true)
  store ptr %44, ptr @_ZN5JVMCI26_shutdown_compiler_runtimeE, align 8
  br label %45

45:                                               ; preds = %40, %37
  %46 = load ptr, ptr @_ZN5JVMCI26_shutdown_compiler_runtimeE, align 8
  store ptr %46, ptr %8, align 8
  %47 = load i64, ptr @JVMCITraceLevel, align 8
  %48 = icmp slt i64 %47, 1
  br i1 %48, label %49, label %53

49:                                               ; preds = %45
  %50 = load i64, ptr @JVMCIEventLogLevel, align 8
  %51 = icmp slt i64 %50, 1
  br i1 %51, label %52, label %53

52:                                               ; preds = %49
  br label %56

53:                                               ; preds = %49, %45
  %54 = load ptr, ptr %8, align 8
  %55 = call noundef i32 @_ZNK12JVMCIRuntime2idEv(ptr noundef nonnull align 8 dereferenceable(93) %54)
  call void (ptr, ...) @_ZN5JVMCI6event1EPKcz(ptr noundef @.str.46, i32 noundef %55)
  br label %56

56:                                               ; preds = %53, %52
  %57 = load ptr, ptr %8, align 8
  store ptr %57, ptr %5, align 8
  br label %58

58:                                               ; preds = %56, %30
  %59 = load ptr, ptr %5, align 8
  ret ptr %59
}

; Function Attrs: mustprogress nounwind uwtable
define linkonce_odr hidden void @_ZN11MutexLockerC2EP5MutexNS0_18SafepointCheckFlagE(ptr noundef nonnull align 8 dereferenceable(8) %0, ptr noundef %1, i32 noundef %2) unnamed_addr #1 comdat align 2 {
  %4 = alloca ptr, align 8
  %5 = alloca ptr, align 8
  %6 = alloca i32, align 4
  store ptr %0, ptr %4, align 8
  store ptr %1, ptr %5, align 8
  store i32 %2, ptr %6, align 4
  %7 = load ptr, ptr %4, align 8
  %8 = load ptr, ptr %5, align 8
  %9 = load i32, ptr %6, align 4
  call void @_ZN15MutexLockerImplC2EP5MutexNS0_18SafepointCheckFlagE(ptr noundef nonnull align 8 dereferenceable(8) %7, ptr noundef %8, i32 noundef %9)
  ret void
}

; Function Attrs: mustprogress nounwind uwtable
define hidden noundef ptr @_ZN12JVMCIRuntime10for_threadEP10JavaThread(ptr noundef %0) #1 align 2 {
  %2 = alloca ptr, align 8
  %3 = alloca ptr, align 8
  %4 = alloca %class.MutexLocker, align 8
  store ptr %0, ptr %2, align 8
  store ptr null, ptr %3, align 8
  %5 = load ptr, ptr @JVMCI_lock, align 8
  call void @_ZN11MutexLockerC2EP5MutexNS0_18SafepointCheckFlagE(ptr noundef nonnull align 8 dereferenceable(8) %4, ptr noundef %5, i32 noundef 0)
  %6 = call noundef zeroext i1 @_ZN5JVMCI11in_shutdownEv()
  br i1 %6, label %7, label %10

7:                                                ; preds = %1
  %8 = load ptr, ptr %2, align 8
  %9 = call noundef ptr @_ZN12JVMCIRuntime26select_runtime_in_shutdownEP10JavaThread(ptr noundef %8)
  br label %13

10:                                               ; preds = %1
  %11 = load ptr, ptr %2, align 8
  %12 = call noundef ptr @_ZN12JVMCIRuntime24select_or_create_runtimeEP10JavaThread(ptr noundef %11)
  br label %13

13:                                               ; preds = %10, %7
  %14 = phi ptr [ %9, %7 ], [ %12, %10 ]
  store ptr %14, ptr %3, align 8
  call void @_ZN11MutexLockerD2Ev(ptr noundef nonnull align 8 dereferenceable(8) %4) #11
  %15 = load ptr, ptr %3, align 8
  %16 = load ptr, ptr %2, align 8
  call void @_ZN12JVMCIRuntime13attach_threadEP10JavaThread(ptr noundef nonnull align 8 dereferenceable(93) %15, ptr noundef %16)
  %17 = load ptr, ptr %3, align 8
  ret ptr %17
}