; Function Attrs: mustprogress nounwind uwtable
define hidden noundef ptr @_ZN12JVMCIRuntime10for_threadEP10JavaThread(ptr noundef %0) local_unnamed_addr #0 align 2 {
  %2 = load ptr, ptr @JVMCI_lock, align 8
  %.not.i.i = icmp eq ptr %2, null
  br i1 %.not.i.i, label %_ZN11MutexLockerC2EP5MutexNS0_18SafepointCheckFlagE.exit, label %3

3:                                                ; preds = %1
  tail call void @_ZN5Mutex4lockEv(ptr noundef nonnull align 8 dereferenceable(104) %2) #15
  br label %_ZN11MutexLockerC2EP5MutexNS0_18SafepointCheckFlagE.exit

_ZN11MutexLockerC2EP5MutexNS0_18SafepointCheckFlagE.exit: ; preds = %1, %3
  %4 = tail call noundef zeroext i1 @_ZN5JVMCI11in_shutdownEv() #15
  br i1 %4, label %5, label %29

5:                                                ; preds = %_ZN11MutexLockerC2EP5MutexNS0_18SafepointCheckFlagE.exit
  %.01519.i = load ptr, ptr @_ZN5JVMCI18_compiler_runtimesE, align 8
  %.not20.i = icmp eq ptr %.01519.i, null
  br i1 %.not20.i, label %._crit_edge.i, label %.lr.ph.i

.lr.ph.i:                                         ; preds = %5, %15
  %.01521.i = phi ptr [ %.015.i, %15 ], [ %.01519.i, %5 ]
  %6 = getelementptr inbounds i8, ptr %.01521.i, i64 88
  %7 = load i32, ptr %6, align 8
  %.not16.i = icmp eq i32 %7, -1
  br i1 %.not16.i, label %15, label %8

8:                                                ; preds = %.lr.ph.i
  %9 = getelementptr inbounds i8, ptr %.01521.i, i64 88
  %10 = add nuw nsw i32 %7, 1
  store i32 %10, ptr %9, align 8
  %11 = load i64, ptr @JVMCITraceLevel, align 8
  %12 = icmp slt i64 %11, 1
  %13 = load i64, ptr @JVMCIEventLogLevel, align 8
  %14 = icmp slt i64 %13, 1
  %or.cond.i = select i1 %12, i1 %14, i1 false
  br i1 %or.cond.i, label %_ZN12JVMCIRuntime26select_runtime_in_shutdownEP10JavaThread.exit, label %.sink.split.i

15:                                               ; preds = %.lr.ph.i
  %16 = getelementptr inbounds i8, ptr %.01521.i, i64 48
  %.015.i = load ptr, ptr %16, align 8
  %.not.i = icmp eq ptr %.015.i, null
  br i1 %.not.i, label %._crit_edge.i, label %.lr.ph.i, !llvm.loop !38

._crit_edge.i:                                    ; preds = %15, %5
  %17 = load ptr, ptr @_ZN5JVMCI26_shutdown_compiler_runtimeE, align 8
  %18 = icmp eq ptr %17, null
  br i1 %18, label %19, label %21

19:                                               ; preds = %._crit_edge.i
  %20 = tail call noundef ptr @_Z12AllocateHeapm8MEMFLAGSN17AllocFailStrategy13AllocFailEnumE(i64 noundef 96, i8 noundef zeroext 8, i32 noundef 0) #15
  tail call void @_ZN12JVMCIRuntimeC2EPS_ib(ptr noundef nonnull align 8 dereferenceable(93) %20, ptr noundef null, i32 noundef -2, i1 noundef zeroext true)
  store ptr %20, ptr @_ZN5JVMCI26_shutdown_compiler_runtimeE, align 8
  br label %21

21:                                               ; preds = %19, %._crit_edge.i
  %22 = phi ptr [ %20, %19 ], [ %17, %._crit_edge.i ]
  %23 = load i64, ptr @JVMCITraceLevel, align 8
  %24 = icmp slt i64 %23, 1
  %25 = load i64, ptr @JVMCIEventLogLevel, align 8
  %26 = icmp slt i64 %25, 1
  %or.cond3.i = select i1 %24, i1 %26, i1 false
  br i1 %or.cond3.i, label %_ZN12JVMCIRuntime26select_runtime_in_shutdownEP10JavaThread.exit, label %.sink.split.i

.sink.split.i:                                    ; preds = %21, %8
  %.sink.i = phi ptr [ %.01521.i, %8 ], [ %22, %21 ]
  %.str.46.sink.i = phi ptr [ @.str.45, %8 ], [ @.str.46, %21 ]
  %27 = getelementptr inbounds i8, ptr %.sink.i, i64 44
  %28 = load i32, ptr %27, align 4
  tail call void (ptr, ...) @_ZN5JVMCI6event1EPKcz(ptr noundef nonnull %.str.46.sink.i, i32 noundef %28) #15
  br label %_ZN12JVMCIRuntime26select_runtime_in_shutdownEP10JavaThread.exit

29:                                               ; preds = %_ZN11MutexLockerC2EP5MutexNS0_18SafepointCheckFlagE.exit
  %30 = tail call noundef ptr @_ZN12JVMCIRuntime24select_or_create_runtimeEP10JavaThread(ptr noundef %0)
  br label %_ZN12JVMCIRuntime26select_runtime_in_shutdownEP10JavaThread.exit

_ZN12JVMCIRuntime26select_runtime_in_shutdownEP10JavaThread.exit: ; preds = %.sink.split.i, %21, %8, %29
  %31 = phi ptr [ %30, %29 ], [ %.01521.i, %8 ], [ %22, %21 ], [ %.sink.i, %.sink.split.i ]
  br i1 %.not.i.i, label %_ZN11MutexLockerD2Ev.exit, label %32

32:                                               ; preds = %_ZN12JVMCIRuntime26select_runtime_in_shutdownEP10JavaThread.exit
  tail call void @_ZN5Mutex6unlockEv(ptr noundef nonnull align 8 dereferenceable(104) %2) #15
  br label %_ZN11MutexLockerD2Ev.exit

_ZN11MutexLockerD2Ev.exit:                        ; preds = %_ZN12JVMCIRuntime26select_runtime_in_shutdownEP10JavaThread.exit, %32
  %33 = getelementptr inbounds i8, ptr %0, i64 1176
  store ptr %31, ptr %33, align 8
  %34 = load ptr, ptr @_ZN5JVMCI26_shutdown_compiler_runtimeE, align 8
  %35 = icmp eq ptr %34, %31
  br i1 %35, label %45, label %36

36:                                               ; preds = %_ZN11MutexLockerD2Ev.exit
  %37 = getelementptr inbounds i8, ptr %31, i64 88
  %38 = load i32, ptr %37, align 8
  %39 = icmp sgt i32 %38, 0
  br i1 %39, label %45, label %40

40:                                               ; preds = %36
  %41 = load ptr, ptr @g_assert_poison, align 8
  store i8 88, ptr %41, align 1
  %42 = getelementptr inbounds i8, ptr %31, i64 44
  %43 = load i32, ptr %42, align 4
  %44 = load i32, ptr %37, align 8
  tail call void (ptr, i32, ptr, ptr, ...) @_Z15report_vm_errorPKciS0_S0_z(ptr noundef nonnull @.str, i32 noundef 1146, ptr noundef nonnull @.str.51, ptr noundef nonnull @.str.52, i32 noundef %43, i32 noundef %44) #17
  unreachable

45:                                               ; preds = %36, %_ZN11MutexLockerD2Ev.exit
  %46 = load i64, ptr @JVMCITraceLevel, align 8
  %47 = icmp slt i64 %46, 1
  %48 = load i64, ptr @JVMCIEventLogLevel, align 8
  %49 = icmp slt i64 %48, 1
  %or.cond.i6 = select i1 %47, i1 %49, i1 false
  br i1 %or.cond.i6, label %_ZN12JVMCIRuntime13attach_threadEP10JavaThread.exit, label %50

50:                                               ; preds = %45
  %51 = getelementptr inbounds i8, ptr %31, i64 44
  %52 = load i32, ptr %51, align 4
  %53 = tail call noundef zeroext i1 @_ZN5JVMCI11in_shutdownEv() #15
  %54 = select i1 %53, ptr @.str.54, ptr @.str.55
  tail call void (ptr, ...) @_ZN5JVMCI6event1EPKcz(ptr noundef nonnull @.str.53, i32 noundef %52, ptr noundef nonnull %54) #15
  br label %_ZN12JVMCIRuntime13attach_threadEP10JavaThread.exit

_ZN12JVMCIRuntime13attach_threadEP10JavaThread.exit: ; preds = %45, %50
  ret ptr %31
}